target datalayout = "e-m:e-p270:32:32-p271:32:32-p272:64:64-i64:64-i128:128-f80:128-n8:16:32:64-S128"
target triple = "x86_64-pc-linux-gnu"

; Function Attrs: nounwind uwtable
define internal void @vert_left_16x16_c(ptr noundef %0, i64 noundef %1, ptr noundef %2, ptr noundef %3) #1 {
  %5 = alloca ptr, align 8
  %6 = alloca i64, align 8
  %7 = alloca ptr, align 8
  %8 = alloca ptr, align 8
  %9 = alloca ptr, align 8
  %10 = alloca ptr, align 8
  %11 = alloca i32, align 4
  %12 = alloca i32, align 4
  %13 = alloca [15 x i8], align 1
  %14 = alloca [15 x i8], align 1
  store ptr %0, ptr %5, align 8, !tbaa !10
  store i64 %1, ptr %6, align 8, !tbaa !12
  store ptr %2, ptr %7, align 8, !tbaa !10
  store ptr %3, ptr %8, align 8, !tbaa !10
  call void @llvm.lifetime.start.p0(i64 8, ptr %9) #10
  %15 = load ptr, ptr %5, align 8, !tbaa !10
  store ptr %15, ptr %9, align 8, !tbaa !10
  call void @llvm.lifetime.start.p0(i64 8, ptr %10) #10
  %16 = load ptr, ptr %8, align 8, !tbaa !10
  store ptr %16, ptr %10, align 8, !tbaa !10
  call void @llvm.lifetime.start.p0(i64 4, ptr %11) #10
  call void @llvm.lifetime.start.p0(i64 4, ptr %12) #10
  call void @llvm.lifetime.start.p0(i64 15, ptr %13) #10
  call void @llvm.lifetime.start.p0(i64 15, ptr %14) #10
  %17 = load i64, ptr %6, align 8, !tbaa !12
  %18 = udiv i64 %17, 1
  store i64 %18, ptr %6, align 8, !tbaa !12
  store i32 0, ptr %11, align 4, !tbaa !15
  br label %19

19:                                               ; preds = %72, %4
  %20 = load i32, ptr %11, align 4, !tbaa !15
  %21 = icmp slt i32 %20, 14
  br i1 %21, label %22, label %75

22:                                               ; preds = %19
  %23 = load ptr, ptr %10, align 8, !tbaa !10
  %24 = load i32, ptr %11, align 4, !tbaa !15
  %25 = sext i32 %24 to i64
  %26 = getelementptr inbounds i8, ptr %23, i64 %25
  %27 = load i8, ptr %26, align 1, !tbaa !14
  %28 = zext i8 %27 to i32
  %29 = load ptr, ptr %10, align 8, !tbaa !10
  %30 = load i32, ptr %11, align 4, !tbaa !15
  %31 = add nsw i32 %30, 1
  %32 = sext i32 %31 to i64
  %33 = getelementptr inbounds i8, ptr %29, i64 %32
  %34 = load i8, ptr %33, align 1, !tbaa !14
  %35 = zext i8 %34 to i32
  %36 = add nsw i32 %28, %35
  %37 = add nsw i32 %36, 1
  %38 = ashr i32 %37, 1
  %39 = trunc i32 %38 to i8
  %40 = load i32, ptr %11, align 4, !tbaa !15
  %41 = sext i32 %40 to i64
  %42 = getelementptr inbounds [15 x i8], ptr %13, i64 0, i64 %41
  store i8 %39, ptr %42, align 1, !tbaa !14
  %43 = load ptr, ptr %10, align 8, !tbaa !10
  %44 = load i32, ptr %11, align 4, !tbaa !15
  %45 = sext i32 %44 to i64
  %46 = getelementptr inbounds i8, ptr %43, i64 %45
  %47 = load i8, ptr %46, align 1, !tbaa !14
  %48 = zext i8 %47 to i32
  %49 = load ptr, ptr %10, align 8, !tbaa !10
  %50 = load i32, ptr %11, align 4, !tbaa !15
  %51 = add nsw i32 %50, 1
  %52 = sext i32 %51 to i64
  %53 = getelementptr inbounds i8, ptr %49, i64 %52
  %54 = load i8, ptr %53, align 1, !tbaa !14
  %55 = zext i8 %54 to i32
  %56 = mul nsw i32 %55, 2
  %57 = add nsw i32 %48, %56
  %58 = load ptr, ptr %10, align 8, !tbaa !10
  %59 = load i32, ptr %11, align 4, !tbaa !15
  %60 = add nsw i32 %59, 2
  %61 = sext i32 %60 to i64
  %62 = getelementptr inbounds i8, ptr %58, i64 %61
  %63 = load i8, ptr %62, align 1, !tbaa !14
  %64 = zext i8 %63 to i32
  %65 = add nsw i32 %57, %64
  %66 = add nsw i32 %65, 2
  %67 = ashr i32 %66, 2
  %68 = trunc i32 %67 to i8
  %69 = load i32, ptr %11, align 4, !tbaa !15
  %70 = sext i32 %69 to i64
  %71 = getelementptr inbounds [15 x i8], ptr %14, i64 0, i64 %70
  store i8 %68, ptr %71, align 1, !tbaa !14
  br label %72

72:                                               ; preds = %22
  %73 = load i32, ptr %11, align 4, !tbaa !15
  %74 = add nsw i32 %73, 1
  store i32 %74, ptr %11, align 4, !tbaa !15
  br label %19, !llvm.loop !54

75:                                               ; preds = %19
  %76 = load ptr, ptr %10, align 8, !tbaa !10
  %77 = getelementptr inbounds i8, ptr %76, i64 14
  %78 = load i8, ptr %77, align 1, !tbaa !14
  %79 = zext i8 %78 to i32
  %80 = load ptr, ptr %10, align 8, !tbaa !10
  %81 = getelementptr inbounds i8, ptr %80, i64 15
  %82 = load i8, ptr %81, align 1, !tbaa !14
  %83 = zext i8 %82 to i32
  %84 = add nsw i32 %79, %83
  %85 = add nsw i32 %84, 1
  %86 = ashr i32 %85, 1
  %87 = trunc i32 %86 to i8
  %88 = getelementptr inbounds [15 x i8], ptr %13, i64 0, i64 14
  store i8 %87, ptr %88, align 1, !tbaa !14
  %89 = load ptr, ptr %10, align 8, !tbaa !10
  %90 = getelementptr inbounds i8, ptr %89, i64 14
  %91 = load i8, ptr %90, align 1, !tbaa !14
  %92 = zext i8 %91 to i32
  %93 = load ptr, ptr %10, align 8, !tbaa !10
  %94 = getelementptr inbounds i8, ptr %93, i64 15
  %95 = load i8, ptr %94, align 1, !tbaa !14
  %96 = zext i8 %95 to i32
  %97 = mul nsw i32 %96, 3
  %98 = add nsw i32 %92, %97
  %99 = add nsw i32 %98, 2
  %100 = ashr i32 %99, 2
  %101 = trunc i32 %100 to i8
  %102 = getelementptr inbounds [15 x i8], ptr %14, i64 0, i64 14
  store i8 %101, ptr %102, align 1, !tbaa !14
  store i32 0, ptr %12, align 4, !tbaa !15
  br label %103

103:                                              ; preds = %183, %75
  %104 = load i32, ptr %12, align 4, !tbaa !15
  %105 = icmp slt i32 %104, 8
  br i1 %105, label %106, label %186

106:                                              ; preds = %103
  %107 = load ptr, ptr %9, align 8, !tbaa !10
  %108 = load i32, ptr %12, align 4, !tbaa !15
  %109 = mul nsw i32 %108, 2
  %110 = sext i32 %109 to i64
  %111 = load i64, ptr %6, align 8, !tbaa !12
  %112 = mul nsw i64 %110, %111
  %113 = getelementptr inbounds i8, ptr %107, i64 %112
  %114 = getelementptr inbounds [15 x i8], ptr %13, i64 0, i64 0
  %115 = load i32, ptr %12, align 4, !tbaa !15
  %116 = sext i32 %115 to i64
  %117 = getelementptr inbounds i8, ptr %114, i64 %116
  %118 = load i32, ptr %12, align 4, !tbaa !15
  %119 = sub nsw i32 16, %118
  %120 = sub nsw i32 %119, 1
  %121 = sext i32 %120 to i64
  %122 = mul i64 %121, 1
  call void @llvm.memcpy.p0.p0.i64(ptr align 1 %113, ptr align 1 %117, i64 %122, i1 false)
  %123 = load ptr, ptr %9, align 8, !tbaa !10
  %124 = load i32, ptr %12, align 4, !tbaa !15
  %125 = mul nsw i32 %124, 2
  %126 = sext i32 %125 to i64
  %127 = load i64, ptr %6, align 8, !tbaa !12
  %128 = mul nsw i64 %126, %127
  %129 = getelementptr inbounds i8, ptr %123, i64 %128
  %130 = getelementptr inbounds i8, ptr %129, i64 16
  %131 = load i32, ptr %12, align 4, !tbaa !15
  %132 = sext i32 %131 to i64
  %133 = sub i64 0, %132
  %134 = getelementptr inbounds i8, ptr %130, i64 %133
  %135 = getelementptr inbounds i8, ptr %134, i64 -1
  %136 = load ptr, ptr %10, align 8, !tbaa !10
  %137 = getelementptr inbounds i8, ptr %136, i64 15
  %138 = load i8, ptr %137, align 1, !tbaa !14
  %139 = zext i8 %138 to i32
  %140 = trunc i32 %139 to i8
  %141 = load i32, ptr %12, align 4, !tbaa !15
  %142 = add nsw i32 %141, 1
  %143 = sext i32 %142 to i64
  call void @llvm.memset.p0.i64(ptr align 1 %135, i8 %140, i64 %143, i1 false)
  %144 = load ptr, ptr %9, align 8, !tbaa !10
  %145 = load i32, ptr %12, align 4, !tbaa !15
  %146 = mul nsw i32 %145, 2
  %147 = add nsw i32 %146, 1
  %148 = sext i32 %147 to i64
  %149 = load i64, ptr %6, align 8, !tbaa !12
  %150 = mul nsw i64 %148, %149
  %151 = getelementptr inbounds i8, ptr %144, i64 %150
  %152 = getelementptr inbounds [15 x i8], ptr %14, i64 0, i64 0
  %153 = load i32, ptr %12, align 4, !tbaa !15
  %154 = sext i32 %153 to i64
  %155 = getelementptr inbounds i8, ptr %152, i64 %154
  %156 = load i32, ptr %12, align 4, !tbaa !15
  %157 = sub nsw i32 16, %156
  %158 = sub nsw i32 %157, 1
  %159 = sext i32 %158 to i64
  %160 = mul i64 %159, 1
  call void @llvm.memcpy.p0.p0.i64(ptr align 1 %151, ptr align 1 %155, i64 %160, i1 false)
  %161 = load ptr, ptr %9, align 8, !tbaa !10
  %162 = load i32, ptr %12, align 4, !tbaa !15
  %163 = mul nsw i32 %162, 2
  %164 = add nsw i32 %163, 1
  %165 = sext i32 %164 to i64
  %166 = load i64, ptr %6, align 8, !tbaa !12
  %167 = mul nsw i64 %165, %166
  %168 = getelementptr inbounds i8, ptr %161, i64 %167
  %169 = getelementptr inbounds i8, ptr %168, i64 16
  %170 = load i32, ptr %12, align 4, !tbaa !15
  %171 = sext i32 %170 to i64
  %172 = sub i64 0, %171
  %173 = getelementptr inbounds i8, ptr %169, i64 %172
  %174 = getelementptr inbounds i8, ptr %173, i64 -1
  %175 = load ptr, ptr %10, align 8, !tbaa !10
  %176 = getelementptr inbounds i8, ptr %175, i64 15
  %177 = load i8, ptr %176, align 1, !tbaa !14
  %178 = zext i8 %177 to i32
  %179 = trunc i32 %178 to i8
  %180 = load i32, ptr %12, align 4, !tbaa !15
  %181 = add nsw i32 %180, 1
  %182 = sext i32 %181 to i64
  call void @llvm.memset.p0.i64(ptr align 1 %174, i8 %179, i64 %182, i1 false)
  br label %183

183:                                              ; preds = %106
  %184 = load i32, ptr %12, align 4, !tbaa !15
  %185 = add nsw i32 %184, 1
  store i32 %185, ptr %12, align 4, !tbaa !15
  br label %103, !llvm.loop !55

186:                                              ; preds = %103
  call void @llvm.lifetime.end.p0(i64 15, ptr %14) #10
  call void @llvm.lifetime.end.p0(i64 15, ptr %13) #10
  call void @llvm.lifetime.end.p0(i64 4, ptr %12) #10
  call void @llvm.lifetime.end.p0(i64 4, ptr %11) #10
  call void @llvm.lifetime.end.p0(i64 8, ptr %10) #10
  call void @llvm.lifetime.end.p0(i64 8, ptr %9) #10
  ret void
}