; Function Attrs: nofree norecurse nosync nounwind memory(argmem: readwrite) uwtable
define internal void @vert_left_16x16_c(ptr noundef writeonly captures(none) %0, i64 noundef %1, ptr readnone captures(none) %2, ptr noundef readonly captures(none) %3) #2 {
  %5 = alloca [15 x i8], align 1
  %6 = alloca [15 x i8], align 1
  call void @llvm.lifetime.start.p0(i64 15, ptr nonnull %5) #13
  call void @llvm.lifetime.start.p0(i64 15, ptr nonnull %6) #13
  %.pre = load i8, ptr %3, align 1, !tbaa !8
  %invariant.gep = getelementptr inbounds nuw i8, ptr %3, i64 2
  br label %7

7:                                                ; preds = %4, %7
  %8 = phi i8 [ %.pre, %4 ], [ %11, %7 ]
  %indvars.iv = phi i64 [ 0, %4 ], [ %indvars.iv.next, %7 ]
  %9 = zext i8 %8 to i16
  %indvars.iv.next = add nuw nsw i64 %indvars.iv, 1
  %10 = getelementptr inbounds nuw i8, ptr %3, i64 %indvars.iv.next
  %11 = load i8, ptr %10, align 1, !tbaa !8
  %12 = zext i8 %11 to i16
  %13 = add nuw nsw i16 %9, 1
  %14 = add nuw nsw i16 %13, %12
  %15 = lshr i16 %14, 1
  %16 = trunc nuw i16 %15 to i8
  %17 = getelementptr inbounds nuw [15 x i8], ptr %5, i64 0, i64 %indvars.iv
  store i8 %16, ptr %17, align 1, !tbaa !8
  %18 = shl nuw nsw i16 %12, 1
  %gep = getelementptr inbounds nuw i8, ptr %invariant.gep, i64 %indvars.iv
  %19 = load i8, ptr %gep, align 1, !tbaa !8
  %20 = zext i8 %19 to i16
  %21 = add nuw nsw i16 %9, 2
  %22 = add nuw nsw i16 %21, %18
  %23 = add nuw nsw i16 %22, %20
  %24 = lshr i16 %23, 2
  %25 = trunc nuw i16 %24 to i8
  %26 = getelementptr inbounds nuw [15 x i8], ptr %6, i64 0, i64 %indvars.iv
  store i8 %25, ptr %26, align 1, !tbaa !8
  %exitcond.not = icmp eq i64 %indvars.iv.next, 14
  br i1 %exitcond.not, label %27, label %7, !llvm.loop !46

27:                                               ; preds = %7
  %28 = getelementptr inbounds nuw i8, ptr %3, i64 14
  %29 = load i8, ptr %28, align 1, !tbaa !8
  %30 = zext i8 %29 to i16
  %31 = getelementptr inbounds nuw i8, ptr %3, i64 15
  %32 = load i8, ptr %31, align 1, !tbaa !8
  %33 = zext i8 %32 to i16
  %34 = add nuw nsw i16 %30, 1
  %35 = add nuw nsw i16 %34, %33
  %36 = lshr i16 %35, 1
  %37 = trunc nuw i16 %36 to i8
  %38 = getelementptr inbounds nuw i8, ptr %5, i64 14
  store i8 %37, ptr %38, align 1, !tbaa !8
  %39 = mul nuw nsw i16 %33, 3
  %40 = add nuw nsw i16 %30, 2
  %41 = add nuw nsw i16 %40, %39
  %42 = lshr i16 %41, 2
  %43 = trunc nuw i16 %42 to i8
  %44 = getelementptr inbounds nuw i8, ptr %6, i64 14
  store i8 %43, ptr %44, align 1, !tbaa !8
  br label %45

45:                                               ; preds = %27, %45
  %indvars.iv48 = phi i64 [ 0, %27 ], [ %indvars.iv.next49, %45 ]
  %46 = shl nuw nsw i64 %indvars.iv48, 1
  %47 = mul nsw i64 %1, %46
  %48 = getelementptr inbounds i8, ptr %0, i64 %47
  %49 = getelementptr inbounds nuw i8, ptr %5, i64 %indvars.iv48
  %50 = sub nuw nsw i64 15, %indvars.iv48
  call void @llvm.memcpy.p0.p0.i64(ptr align 1 %48, ptr nonnull align 1 %49, i64 %50, i1 false)
  %51 = getelementptr inbounds nuw i8, ptr %48, i64 16
  %52 = sub nsw i64 0, %indvars.iv48
  %53 = getelementptr inbounds i8, ptr %51, i64 %52
  %54 = getelementptr inbounds i8, ptr %53, i64 -1
  %55 = load i8, ptr %31, align 1, !tbaa !8
  %indvars.iv.next49 = add nuw nsw i64 %indvars.iv48, 1
  tail call void @llvm.memset.p0.i64(ptr noundef nonnull align 1 dereferenceable(1) %54, i8 %55, i64 %indvars.iv.next49, i1 false)
  %56 = or disjoint i64 %46, 1
  %57 = mul nsw i64 %1, %56
  %58 = getelementptr inbounds i8, ptr %0, i64 %57
  %59 = getelementptr inbounds nuw i8, ptr %6, i64 %indvars.iv48
  call void @llvm.memcpy.p0.p0.i64(ptr align 1 %58, ptr nonnull align 1 %59, i64 %50, i1 false)
  %60 = getelementptr inbounds nuw i8, ptr %58, i64 16
  %61 = getelementptr inbounds i8, ptr %60, i64 %52
  %62 = getelementptr inbounds i8, ptr %61, i64 -1
  %63 = load i8, ptr %31, align 1, !tbaa !8
  tail call void @llvm.memset.p0.i64(ptr noundef nonnull align 1 dereferenceable(1) %62, i8 %63, i64 %indvars.iv.next49, i1 false)
  %exitcond51.not = icmp eq i64 %indvars.iv.next49, 8
  br i1 %exitcond51.not, label %64, label %45, !llvm.loop !47

64:                                               ; preds = %45
  call void @llvm.lifetime.end.p0(i64 15, ptr nonnull %6) #13
  call void @llvm.lifetime.end.p0(i64 15, ptr nonnull %5) #13
  ret void
}